
msg_shm.o:     file format elf64-littleaarch64

SYMBOL TABLE:
0000000000000000 l    d  .text	0000000000000000 .text
0000000000000000 l    d  .init.text	0000000000000000 .init.text
0000000000000000 l    d  .exit.text	0000000000000000 .exit.text
0000000000000000 l    d  .rodata	0000000000000000 .rodata
0000000000000000 l    d  ___kcrctab+IPI__pcn_kmsg_receive	0000000000000000 ___kcrctab+IPI__pcn_kmsg_receive
0000000000000000 l    d  ___ksymtab+IPI__pcn_kmsg_receive	0000000000000000 ___ksymtab+IPI__pcn_kmsg_receive
0000000000000000 l    d  .rodata.str1.8	0000000000000000 .rodata.str1.8
0000000000000000 l    d  .modinfo	0000000000000000 .modinfo
0000000000000000 l    d  __ksymtab_strings	0000000000000000 __ksymtab_strings
0000000000000000 l    d  __mcount_loc	0000000000000000 __mcount_loc
0000000000000000 l    d  .altinstructions	0000000000000000 .altinstructions
0000000000000000 l    d  .altinstr_replacement	0000000000000000 .altinstr_replacement
0000000000000000 l    d  .eh_frame	0000000000000000 .eh_frame
0000000000000000 l    d  .data	0000000000000000 .data
0000000000000000 l    d  __jump_table	0000000000000000 __jump_table
0000000000000000 l    d  .discard.addressable	0000000000000000 .discard.addressable
0000000000000000 l    d  .bss	0000000000000000 .bss
0000000000000000 l    d  .comment	0000000000000000 .comment
0000000000000000 l    d  .note.GNU-stack	0000000000000000 .note.GNU-stack
0000000000000000 l    d  .debug_aranges	0000000000000000 .debug_aranges
0000000000000000 l    d  .debug_info	0000000000000000 .debug_info
0000000000000000 l    d  .debug_abbrev	0000000000000000 .debug_abbrev
0000000000000000 l    d  .debug_line	0000000000000000 .debug_line
0000000000000000 l    d  .debug_str	0000000000000000 .debug_str
0000000000000000 l    d  .debug_loc	0000000000000000 .debug_loc
0000000000000000 l    d  .debug_ranges	0000000000000000 .debug_ranges
0000000000000000 l    df *ABS*	0000000000000000 shm.c
0000000000000000 l       ___ksymtab+IPI__pcn_kmsg_receive	0000000000000000 __ksymtab_IPI__pcn_kmsg_receive
0000000000000000 l     O __ksymtab_strings	0000000000000016 __kstrtab_IPI__pcn_kmsg_receive
00000000000000d4 l     F .text	000000000000018c shm__pcn_kmsg_send.isra.0
0000000000000000 l     F .exit.text	000000000000001c exit_kmsg_shm
0000000000000158 l     F .init.text	0000000000000378 init_kmsg_shm
0000000000000000 l     O .rodata	0000000000000008 __func__.2
0000000000000008 l     O .rodata	0000000000000013 __func__.1
0000000000000000 l     O .bss	0000000000000008 insurance_send
0000000000000008 l     O .bss	0000000000000008 shm_handler
0000000000000010 l     O .bss	0000000000000080 ip_table
0000000000000090 l     O .bss	0000000000000070 meminfo
0000000000000000 l     O .discard.addressable	0000000000000008 __addressable_IPI__pcn_kmsg_receive272
0000000000000000 l     O .modinfo	000000000000000c __UNIQUE_ID_license22
0000000000000000 l    df *ABS*	0000000000000000 ring_buffer.c
0000000000000390 l     F .text	00000000000000f8 __init_ring_buffer.constprop.0
0000000000000000         *UND*	0000000000000000 MAX_SHM_SLICES
0000000000000000         *UND*	0000000000000000 arm64_const_caps_ready
0000000000000000         *UND*	0000000000000000 __aarch64_ldadd8_sync
0000000000000620 g     F .text	00000000000000d4 ring_buffer_create
0000000000000584 g     F .text	000000000000009c ring_buffer_init
0000000000000000 g     F .exit.text	000000000000001c cleanup_module
0000000000000000         *UND*	0000000000000000 pcn_kmsg_set_transport
0000000000000000         *UND*	0000000000000000 memcpy
0000000000000000         *UND*	0000000000000000 kfree
0000000000000000         *UND*	0000000000000000 free_pages
0000000000000000         *UND*	0000000000000000 vsnprintf
0000000000000000         *UND*	0000000000000000 memremap
0000000000000000         *UND*	0000000000000000 kmem_cache_alloc_trace
0000000000000158 g     F .init.text	0000000000000378 init_module
0000000000000000         *UND*	0000000000000000 cpu_hwcap_keys
0000000000000000         *UND*	0000000000000000 popcorn_shm_slices
0000000000000000 g     O .data	0000000000000060 transport_shm
0000000000000000         *UND*	0000000000000000 cpu_hwcaps
00000000000002d4 g     F .text	0000000000000044 shm_kmsg_post
0000000000000740 g     F .text	0000000000000204 ring_buffer_get_mapped
0000000000000000         *UND*	0000000000000000 __stack_chk_fail
0000000000000000         *UND*	0000000000000000 queued_spin_lock_slowpath
0000000000000000         *UND*	0000000000000000 __get_free_pages
0000000000000000         *UND*	0000000000000000 popcorn_ipi_handler_ptr
0000000000000260 g     F .text	0000000000000044 shm_kmsg_send
0000000000000000         *UND*	0000000000000000 remote_address_space_high
0000000000000000         *UND*	0000000000000000 remote_address_space
00000000000002a4 g     F .text	0000000000000030 shm_kmsg_done
0000000000000020 g     F .text	0000000000000038 shm_kmsg_get
0000000000000000         *UND*	0000000000000000 init_net
0000000000000000         *UND*	0000000000000000 __ioremap
0000000000000320 g     F .text	000000000000006c __check_hot_plug_ok
0000000000000944 g     F .text	000000000000003c ring_buffer_get
0000000000000000         *UND*	0000000000000000 memstart_addr
0000000000000000         *UND*	0000000000000000 _cond_resched
0000000000000000         *UND*	0000000000000000 online_pages
0000000000000000         *UND*	0000000000000000 printk
0000000000000000 g     F .init.text	0000000000000034 _identify_myself
0000000000000000         *UND*	0000000000000000 memset
0000000000000060 g     F .text	0000000000000030 shm_kmsg_put
0000000000000000         *UND*	0000000000000000 arch_send_call_function_cross_arch_ipi
0000000000000000         *UND*	0000000000000000 __alloc_pages_nodemask
0000000000000000         *UND*	0000000000000000 si_meminfo
0000000000000000 g     F .text	0000000000000020 IPI__pcn_kmsg_receive
0000000000000090 g     F .text	0000000000000044 shm_kmsg_stat
0000000000000000         *UND*	0000000000000000 seq_printf
0000000000000000         *UND*	0000000000000000 set_popcorn_node_online
0000000000000034 g     F .init.text	0000000000000124 identify_myself
000000005101b662 g       *ABS*	0000000000000000 __crc_IPI__pcn_kmsg_receive
00000000000006f4 g     F .text	000000000000004c ring_buffer_destroy
0000000000000000         *UND*	0000000000000000 broadcast_my_node_info
0000000000000490 g     F .text	00000000000000f4 ring_buffer_usage
0000000000000000         *UND*	0000000000000000 my_nid
0000000000000980 g     F .text	0000000000000138 ring_buffer_put
0000000000000000         *UND*	0000000000000000 _mcount
0000000000000000         *UND*	0000000000000000 msleep
0000000000000000         *UND*	0000000000000000 __kmalloc
0000000000000000         *UND*	0000000000000000 kmalloc_caches



Disassembly of section .text:

0000000000000000 <IPI__pcn_kmsg_receive>:
   0:	a9bf7bfd 	stp	x29, x30, [sp, #-16]!
   4:	910003fd 	mov	x29, sp
   8:	d50320ff 	xpaclri
   c:	aa1e03e0 	mov	x0, x30
  10:	94000000 	bl	0 <_mcount>
  14:	52800000 	mov	w0, #0x0                   	// #0
  18:	a8c17bfd 	ldp	x29, x30, [sp], #16
  1c:	d65f03c0 	ret

0000000000000020 <shm_kmsg_get>:
  20:	a9be7bfd 	stp	x29, x30, [sp, #-32]!
  24:	910003fd 	mov	x29, sp
  28:	f9000bf3 	str	x19, [sp, #16]
  2c:	d50320ff 	xpaclri
  30:	aa0003f3 	mov	x19, x0
  34:	aa1e03e0 	mov	x0, x30
  38:	94000000 	bl	0 <_mcount>
  3c:	94000000 	bl	0 <_cond_resched>
  40:	aa1303e0 	mov	x0, x19
  44:	52819801 	mov	w1, #0xcc0                 	// #3264
  48:	94000000 	bl	0 <__kmalloc>
  4c:	f9400bf3 	ldr	x19, [sp, #16]
  50:	a8c27bfd 	ldp	x29, x30, [sp], #32
  54:	d65f03c0 	ret
  58:	d503201f 	nop
  5c:	d503201f 	nop

0000000000000060 <shm_kmsg_put>:
  60:	a9be7bfd 	stp	x29, x30, [sp, #-32]!
  64:	910003fd 	mov	x29, sp
  68:	f9000bf3 	str	x19, [sp, #16]
  6c:	d50320ff 	xpaclri
  70:	aa0003f3 	mov	x19, x0
  74:	aa1e03e0 	mov	x0, x30
  78:	94000000 	bl	0 <_mcount>
  7c:	aa1303e0 	mov	x0, x19
  80:	94000000 	bl	0 <kfree>
  84:	f9400bf3 	ldr	x19, [sp, #16]
  88:	a8c27bfd 	ldp	x29, x30, [sp], #32
  8c:	d65f03c0 	ret

0000000000000090 <shm_kmsg_stat>:
  90:	a9be7bfd 	stp	x29, x30, [sp, #-32]!
  94:	910003fd 	mov	x29, sp
  98:	f9000bf3 	str	x19, [sp, #16]
  9c:	d50320ff 	xpaclri
  a0:	aa0003f3 	mov	x19, x0
  a4:	aa1e03e0 	mov	x0, x30
  a8:	94000000 	bl	0 <_mcount>
  ac:	b40000f3 	cbz	x19, c8 <shm_kmsg_stat+0x38>
  b0:	90000002 	adrp	x2, 0 <IPI__pcn_kmsg_receive>
  b4:	90000001 	adrp	x1, 0 <IPI__pcn_kmsg_receive>
  b8:	aa1303e0 	mov	x0, x19
  bc:	91000042 	add	x2, x2, #0x0
  c0:	91000021 	add	x1, x1, #0x0
  c4:	94000000 	bl	0 <seq_printf>
  c8:	f9400bf3 	ldr	x19, [sp, #16]
  cc:	a8c27bfd 	ldp	x29, x30, [sp], #32
  d0:	d65f03c0 	ret

00000000000000d4 <shm__pcn_kmsg_send.isra.0>:
  d4:	a9bc7bfd 	stp	x29, x30, [sp, #-64]!
  d8:	910003fd 	mov	x29, sp
  dc:	a9025bf5 	stp	x21, x22, [sp, #32]
  e0:	a90363f7 	stp	x23, x24, [sp, #48]
  e4:	aa0003f7 	mov	x23, x0
  e8:	d50320ff 	xpaclri
  ec:	aa0103f8 	mov	x24, x1
  f0:	aa1e03e0 	mov	x0, x30
  f4:	94000000 	bl	0 <_mcount>
  f8:	a940d6f6 	ldp	x22, x21, [x23, #8]
  fc:	b4000615 	cbz	x21, 1bc <shm__pcn_kmsg_send.isra.0+0xe8>
 100:	b4000a96 	cbz	x22, 250 <shm__pcn_kmsg_send.isra.0+0x17c>
 104:	a90153f3 	stp	x19, x20, [sp, #16]
 108:	90000014 	adrp	x20, 0 <IPI__pcn_kmsg_receive>
 10c:	394006c2 	ldrb	w2, [x22, #1]
 110:	f9400293 	ldr	x19, [x20]
 114:	7100885f 	cmp	w2, #0x22
 118:	54000708 	b.hi	1f8 <shm__pcn_kmsg_send.isra.0+0x124>  // b.pmore
 11c:	92402673 	and	x19, x19, #0x3ff
 120:	aa1803e2 	mov	x2, x24
 124:	91002ac1 	add	x1, x22, #0xa
 128:	aa132a73 	orr	x19, x19, x19, lsl #10
 12c:	d37bea73 	lsl	x19, x19, #5
 130:	91006e60 	add	x0, x19, #0x1b
 134:	8b0002a0 	add	x0, x21, x0
 138:	94000000 	bl	0 <memcpy>
 13c:	91004660 	add	x0, x19, #0x11
 140:	8b1302b3 	add	x19, x21, x19
 144:	f94002c2 	ldr	x2, [x22]
 148:	8b0002a1 	add	x1, x21, x0
 14c:	f8206aa2 	str	x2, [x21, x0]
 150:	91402273 	add	x19, x19, #0x8, lsl #12
 154:	52800020 	mov	w0, #0x1                   	// #1
 158:	794012c2 	ldrh	w2, [x22, #8]
 15c:	79001022 	strh	w2, [x1, #8]
 160:	39006660 	strb	w0, [x19, #25]
 164:	d5033f9f 	dsb	sy
 168:	91000293 	add	x19, x20, #0x0
 16c:	aa1503e1 	mov	x1, x21
 170:	d2800020 	mov	x0, #0x1                   	// #1
 174:	94000000 	bl	0 <__aarch64_ldadd8_sync>
 178:	f9400261 	ldr	x1, [x19]
 17c:	cb010001 	sub	x1, x0, x1
 180:	f100043f 	cmp	x1, #0x1
 184:	54000248 	b.hi	1cc <shm__pcn_kmsg_send.isra.0+0xf8>  // b.pmore
 188:	92402400 	and	x0, x0, #0x3ff
 18c:	f94002a1 	ldr	x1, [x21]
 190:	aa002800 	orr	x0, x0, x0, lsl #10
 194:	f9000281 	str	x1, [x20]
 198:	8b0016a0 	add	x0, x21, x0, lsl #5
 19c:	91402000 	add	x0, x0, #0x8, lsl #12
 1a0:	f8011001 	stur	x1, [x0, #17]
 1a4:	94000000 	bl	0 <arch_send_call_function_cross_arch_ipi>
 1a8:	a94153f3 	ldp	x19, x20, [sp, #16]
 1ac:	a9425bf5 	ldp	x21, x22, [sp, #32]
 1b0:	a94363f7 	ldp	x23, x24, [sp, #48]
 1b4:	a8c47bfd 	ldp	x29, x30, [sp], #64
 1b8:	d65f03c0 	ret
 1bc:	90000000 	adrp	x0, 0 <IPI__pcn_kmsg_receive>
 1c0:	91000000 	add	x0, x0, #0x0
 1c4:	94000000 	bl	0 <printk>
 1c8:	17fffff9 	b	1ac <shm__pcn_kmsg_send.isra.0+0xd8>
 1cc:	aa0003e1 	mov	x1, x0
 1d0:	90000000 	adrp	x0, 0 <IPI__pcn_kmsg_receive>
 1d4:	91000000 	add	x0, x0, #0x0
 1d8:	94000000 	bl	0 <printk>
 1dc:	f9400261 	ldr	x1, [x19]
 1e0:	f90002a1 	str	x1, [x21]
 1e4:	90000000 	adrp	x0, 0 <IPI__pcn_kmsg_receive>
 1e8:	91000000 	add	x0, x0, #0x0
 1ec:	f94002a1 	ldr	x1, [x21]
 1f0:	94000000 	bl	0 <printk>
 1f4:	17ffffde 	b	16c <shm__pcn_kmsg_send.isra.0+0x98>
 1f8:	f94002c4 	ldr	x4, [x22]
 1fc:	90000013 	adrp	x19, 0 <IPI__pcn_kmsg_receive>
 200:	f84022c3 	ldur	x3, [x22, #2]
 204:	91000273 	add	x19, x19, #0x0
 208:	93401484 	sbfx	x4, x4, #0, #6
 20c:	aa1303e1 	mov	x1, x19
 210:	90000000 	adrp	x0, 0 <IPI__pcn_kmsg_receive>
 214:	91000000 	add	x0, x0, #0x0
 218:	13001c84 	sxtb	w4, w4
 21c:	94000000 	bl	0 <printk>
 220:	f94006e2 	ldr	x2, [x23, #8]
 224:	91002261 	add	x1, x19, #0x8
 228:	90000000 	adrp	x0, 0 <IPI__pcn_kmsg_receive>
 22c:	91000000 	add	x0, x0, #0x0
 230:	f9400044 	ldr	x4, [x2]
 234:	f8402043 	ldur	x3, [x2, #2]
 238:	39400442 	ldrb	w2, [x2, #1]
 23c:	93401484 	sbfx	x4, x4, #0, #6
 240:	13001c84 	sxtb	w4, w4
 244:	94000000 	bl	0 <printk>
 248:	a94153f3 	ldp	x19, x20, [sp, #16]
 24c:	17ffffd8 	b	1ac <shm__pcn_kmsg_send.isra.0+0xd8>
 250:	90000000 	adrp	x0, 0 <IPI__pcn_kmsg_receive>
 254:	91000000 	add	x0, x0, #0x0
 258:	94000000 	bl	0 <printk>
 25c:	17ffffd4 	b	1ac <shm__pcn_kmsg_send.isra.0+0xd8>

0000000000000260 <shm_kmsg_send>:
 260:	a9be7bfd 	stp	x29, x30, [sp, #-32]!
 264:	910003fd 	mov	x29, sp
 268:	a90153f3 	stp	x19, x20, [sp, #16]
 26c:	d50320ff 	xpaclri
 270:	aa0203f4 	mov	x20, x2
 274:	aa0103f3 	mov	x19, x1
 278:	aa1e03e0 	mov	x0, x30
 27c:	94000000 	bl	0 <_mcount>
 280:	90000000 	adrp	x0, 0 <IPI__pcn_kmsg_receive>
 284:	aa1403e1 	mov	x1, x20
 288:	f9400000 	ldr	x0, [x0]
 28c:	f9000413 	str	x19, [x0, #8]
 290:	97ffff91 	bl	d4 <shm__pcn_kmsg_send.isra.0>
 294:	a94153f3 	ldp	x19, x20, [sp, #16]
 298:	52800000 	mov	w0, #0x0                   	// #0
 29c:	a8c27bfd 	ldp	x29, x30, [sp], #32
 2a0:	d65f03c0 	ret

00000000000002a4 <shm_kmsg_done>:
 2a4:	a9be7bfd 	stp	x29, x30, [sp, #-32]!
 2a8:	910003fd 	mov	x29, sp
 2ac:	f9000bf3 	str	x19, [sp, #16]
 2b0:	d50320ff 	xpaclri
 2b4:	aa0003f3 	mov	x19, x0
 2b8:	aa1e03e0 	mov	x0, x30
 2bc:	94000000 	bl	0 <_mcount>
 2c0:	aa1303e0 	mov	x0, x19
 2c4:	94000000 	bl	0 <kfree>
 2c8:	f9400bf3 	ldr	x19, [sp, #16]
 2cc:	a8c27bfd 	ldp	x29, x30, [sp], #32
 2d0:	d65f03c0 	ret

00000000000002d4 <shm_kmsg_post>:
 2d4:	a9be7bfd 	stp	x29, x30, [sp, #-32]!
 2d8:	910003fd 	mov	x29, sp
 2dc:	a90153f3 	stp	x19, x20, [sp, #16]
 2e0:	d50320ff 	xpaclri
 2e4:	aa0203f4 	mov	x20, x2
 2e8:	aa0103f3 	mov	x19, x1
 2ec:	aa1e03e0 	mov	x0, x30
 2f0:	94000000 	bl	0 <_mcount>
 2f4:	90000000 	adrp	x0, 0 <IPI__pcn_kmsg_receive>
 2f8:	aa1403e1 	mov	x1, x20
 2fc:	f9400000 	ldr	x0, [x0]
 300:	f9000413 	str	x19, [x0, #8]
 304:	97ffff74 	bl	d4 <shm__pcn_kmsg_send.isra.0>
 308:	a94153f3 	ldp	x19, x20, [sp, #16]
 30c:	52800000 	mov	w0, #0x0                   	// #0
 310:	a8c27bfd 	ldp	x29, x30, [sp], #32
 314:	d65f03c0 	ret
 318:	d503201f 	nop
 31c:	d503201f 	nop

0000000000000320 <__check_hot_plug_ok>:
 320:	a9be7bfd 	stp	x29, x30, [sp, #-32]!
 324:	910003fd 	mov	x29, sp
 328:	f9000bf3 	str	x19, [sp, #16]
 32c:	90000013 	adrp	x19, 0 <IPI__pcn_kmsg_receive>
 330:	91000273 	add	x19, x19, #0x0
 334:	d50320ff 	xpaclri
 338:	91024273 	add	x19, x19, #0x90
 33c:	aa1e03e0 	mov	x0, x30
 340:	94000000 	bl	0 <_mcount>
 344:	aa1303e0 	mov	x0, x19
 348:	94000000 	bl	0 <si_meminfo>
 34c:	a9420a61 	ldp	x1, x2, [x19, #32]
 350:	52800000 	mov	w0, #0x0                   	// #0
 354:	eb02083f 	cmp	x1, x2, lsl #2
 358:	54000088 	b.hi	368 <__check_hot_plug_ok+0x48>  // b.pmore
 35c:	f9400bf3 	ldr	x19, [sp, #16]
 360:	a8c27bfd 	ldp	x29, x30, [sp], #32
 364:	d65f03c0 	ret
 368:	90000001 	adrp	x1, 0 <popcorn_shm_slices>
 36c:	90000000 	adrp	x0, 0 <MAX_SHM_SLICES>
 370:	f9400bf3 	ldr	x19, [sp, #16]
 374:	b9400000 	ldr	w0, [x0]
 378:	b9400021 	ldr	w1, [x1]
 37c:	a8c27bfd 	ldp	x29, x30, [sp], #32
 380:	6b00003f 	cmp	w1, w0
 384:	1a9f07e0 	cset	w0, ne	// ne = any
 388:	d65f03c0 	ret
 38c:	d503201f 	nop

0000000000000390 <__init_ring_buffer.constprop.0>:
 390:	a9ba7bfd 	stp	x29, x30, [sp, #-96]!
 394:	910003fd 	mov	x29, sp
 398:	a90153f3 	stp	x19, x20, [sp, #16]
 39c:	a9025bf5 	stp	x21, x22, [sp, #32]
 3a0:	a90363f7 	stp	x23, x24, [sp, #48]
 3a4:	9100a014 	add	x20, x0, #0x28
 3a8:	d50320ff 	xpaclri
 3ac:	aa0003f6 	mov	x22, x0
 3b0:	9101a015 	add	x21, x0, #0x68
 3b4:	aa1403f3 	mov	x19, x20
 3b8:	aa0103f8 	mov	x24, x1
 3bc:	aa0203f7 	mov	x23, x2
 3c0:	aa1e03e0 	mov	x0, x30
 3c4:	94000000 	bl	0 <_mcount>
 3c8:	14000008 	b	3e8 <__init_ring_buffer.constprop.0+0x58>
 3cc:	91500003 	add	x3, x0, #0x400, lsl #12
 3d0:	91002273 	add	x19, x19, #0x8
 3d4:	f81f8260 	stur	x0, [x19, #-8]
 3d8:	f9003e63 	str	x3, [x19, #120]
 3dc:	f9007e7f 	str	xzr, [x19, #248]
 3e0:	eb15027f 	cmp	x19, x21
 3e4:	54000260 	b.eq	430 <__init_ring_buffer.constprop.0+0xa0>  // b.none
 3e8:	52800141 	mov	w1, #0xa                   	// #10
 3ec:	52819800 	mov	w0, #0xcc0                 	// #3264
 3f0:	94000000 	bl	0 <__get_free_pages>
 3f4:	b5fffec0 	cbnz	x0, 3cc <__init_ring_buffer.constprop.0+0x3c>
 3f8:	f9400280 	ldr	x0, [x20]
 3fc:	52800141 	mov	w1, #0xa                   	// #10
 400:	b4000060 	cbz	x0, 40c <__init_ring_buffer.constprop.0+0x7c>
 404:	94000000 	bl	0 <free_pages>
 408:	f900029f 	str	xzr, [x20]
 40c:	91002294 	add	x20, x20, #0x8
 410:	eb15029f 	cmp	x20, x21
 414:	54ffff21 	b.ne	3f8 <__init_ring_buffer.constprop.0+0x68>  // b.any
 418:	a94153f3 	ldp	x19, x20, [sp, #16]
 41c:	12800160 	mov	w0, #0xfffffff4            	// #-12
 420:	a9425bf5 	ldp	x21, x22, [sp, #32]
 424:	a94363f7 	ldp	x23, x24, [sp, #48]
 428:	a8c67bfd 	ldp	x29, x30, [sp], #96
 42c:	d65f03c0 	ret
 430:	f94016c0 	ldr	x0, [x22, #40]
 434:	52800104 	mov	w4, #0x8                   	// #8
 438:	790002df 	strh	wzr, [x22]
 43c:	aa1803e2 	mov	x2, x24
 440:	f90006c0 	str	x0, [x22, #8]
 444:	910103e3 	add	x3, sp, #0x40
 448:	790022df 	strh	wzr, [x22, #16]
 44c:	d2800a01 	mov	x1, #0x50                  	// #80
 450:	a901fec0 	stp	x0, xzr, [x22, #24]
 454:	9106b2c0 	add	x0, x22, #0x1ac
 458:	b901aac4 	str	w4, [x22, #424]
 45c:	a94016e4 	ldp	x4, x5, [x23]
 460:	a90417e4 	stp	x4, x5, [sp, #64]
 464:	a94116e4 	ldp	x4, x5, [x23, #16]
 468:	a90517e4 	stp	x4, x5, [sp, #80]
 46c:	94000000 	bl	0 <vsnprintf>
 470:	a94153f3 	ldp	x19, x20, [sp, #16]
 474:	52800000 	mov	w0, #0x0                   	// #0
 478:	a9425bf5 	ldp	x21, x22, [sp, #32]
 47c:	a94363f7 	ldp	x23, x24, [sp, #48]
 480:	a8c67bfd 	ldp	x29, x30, [sp], #96
 484:	d65f03c0 	ret
 488:	d503201f 	nop
 48c:	d503201f 	nop

0000000000000490 <ring_buffer_usage>:
 490:	a9be7bfd 	stp	x29, x30, [sp, #-32]!
 494:	910003fd 	mov	x29, sp
 498:	a90153f3 	stp	x19, x20, [sp, #16]
 49c:	d50320ff 	xpaclri
 4a0:	aa0003f3 	mov	x19, x0
 4a4:	aa1e03e0 	mov	x0, x30
 4a8:	94000000 	bl	0 <_mcount>
 4ac:	d53b4234 	mrs	x20, daif
 4b0:	12190280 	and	w0, w20, #0x80
 4b4:	35000060 	cbnz	w0, 4c0 <ring_buffer_usage+0x30>
 4b8:	d2800c00 	mov	x0, #0x60                  	// #96
 4bc:	d50342df 	msr	daifset, #0x2
 4c0:	d2800002 	mov	x2, #0x0                   	// #0
 4c4:	91009260 	add	x0, x19, #0x24
 4c8:	52800023 	mov	w3, #0x1                   	// #1
 4cc:	f9800011 	prfm	pstl1strm, [x0]
 4d0:	885ffc01 	ldaxr	w1, [x0]
 4d4:	4a020024 	eor	w4, w1, w2
 4d8:	35000064 	cbnz	w4, 4e4 <ring_buffer_usage+0x54>
 4dc:	88047c03 	stxr	w4, w3, [x0]
 4e0:	35ffff84 	cbnz	w4, 4d0 <ring_buffer_usage+0x40>
 4e4:	350004c1 	cbnz	w1, 57c <ring_buffer_usage+0xec>
 4e8:	79400263 	ldrh	w3, [x19]
 4ec:	79402262 	ldrh	w2, [x19, #16]
 4f0:	f9400665 	ldr	x5, [x19, #8]
 4f4:	f9400e61 	ldr	x1, [x19, #24]
 4f8:	b9402260 	ldr	w0, [x19, #32]
 4fc:	6b02007f 	cmp	w3, w2
 500:	540002e0 	b.eq	55c <ring_buffer_usage+0xcc>  // b.none
 504:	8b22ce67 	add	x7, x19, w2, sxtw #3
 508:	b941aa68 	ldr	w8, [x19, #424]
 50c:	8b23ce64 	add	x4, x19, w3, sxtw #3
 510:	51000442 	sub	w2, w2, #0x1
 514:	52a00806 	mov	w6, #0x400000              	// #4194304
 518:	f94014e7 	ldr	x7, [x7, #40]
 51c:	1b087c00 	mul	w0, w0, w8
 520:	f9405484 	ldr	x4, [x4, #168]
 524:	4b030000 	sub	w0, w0, w3
 528:	cb070021 	sub	x1, x1, x7
 52c:	0b020000 	add	w0, w0, w2
 530:	cb050084 	sub	x4, x4, x5
 534:	8b040021 	add	x1, x1, x4
 538:	9ba60400 	umaddl	x0, w0, w6, x1
 53c:	52800001 	mov	w1, #0x0                   	// #0
 540:	91009262 	add	x2, x19, #0x24
 544:	089ffc41 	stlrb	w1, [x2]
 548:	d51b4234 	msr	daif, x20
 54c:	d503201f 	nop
 550:	a94153f3 	ldp	x19, x20, [sp, #16]
 554:	a8c27bfd 	ldp	x29, x30, [sp], #32
 558:	d65f03c0 	ret
 55c:	35000060 	cbnz	w0, 568 <ring_buffer_usage+0xd8>
 560:	cb050020 	sub	x0, x1, x5
 564:	17fffff6 	b	53c <ring_buffer_usage+0xac>
 568:	b941aa60 	ldr	w0, [x19, #424]
 56c:	cb0100a5 	sub	x5, x5, x1
 570:	d36aa400 	lsl	x0, x0, #22
 574:	cb050000 	sub	x0, x0, x5
 578:	17fffff1 	b	53c <ring_buffer_usage+0xac>
 57c:	94000000 	bl	0 <queued_spin_lock_slowpath>
 580:	17ffffda 	b	4e8 <ring_buffer_usage+0x58>

0000000000000584 <ring_buffer_init>:
 584:	a9b67bfd 	stp	x29, x30, [sp, #-160]!
 588:	910003fd 	mov	x29, sp
 58c:	a90153f3 	stp	x19, x20, [sp, #16]
 590:	d50320ff 	xpaclri
 594:	aa0003f3 	mov	x19, x0
 598:	aa0103f4 	mov	x20, x1
 59c:	aa1e03e0 	mov	x0, x30
 5a0:	a9070fe2 	stp	x2, x3, [sp, #112]
 5a4:	a90817e4 	stp	x4, x5, [sp, #128]
 5a8:	a9091fe6 	stp	x6, x7, [sp, #144]
 5ac:	94000000 	bl	0 <_mcount>
 5b0:	d5384102 	mrs	x2, sp_el0
 5b4:	f9426c40 	ldr	x0, [x2, #1240]
 5b8:	f90037e0 	str	x0, [sp, #104]
 5bc:	d2800000 	mov	x0, #0x0                   	// #0
 5c0:	9101c3e4 	add	x4, sp, #0x70
 5c4:	910283e0 	add	x0, sp, #0xa0
 5c8:	a90483e0 	stp	x0, x0, [sp, #72]
 5cc:	128005e3 	mov	w3, #0xffffffd0            	// #-48
 5d0:	f9002fe4 	str	x4, [sp, #88]
 5d4:	aa1403e1 	mov	x1, x20
 5d8:	290c7fe3 	stp	w3, wzr, [sp, #96]
 5dc:	910083e2 	add	x2, sp, #0x20
 5e0:	a94497e4 	ldp	x4, x5, [sp, #72]
 5e4:	a90217e4 	stp	x4, x5, [sp, #32]
 5e8:	aa1303e0 	mov	x0, x19
 5ec:	a94597e4 	ldp	x4, x5, [sp, #88]
 5f0:	a90317e4 	stp	x4, x5, [sp, #48]
 5f4:	97ffff67 	bl	390 <__init_ring_buffer.constprop.0>
 5f8:	d5384101 	mrs	x1, sp_el0
 5fc:	f94037e3 	ldr	x3, [sp, #104]
 600:	f9426c22 	ldr	x2, [x1, #1240]
 604:	eb020063 	subs	x3, x3, x2
 608:	d2800002 	mov	x2, #0x0                   	// #0
 60c:	54000081 	b.ne	61c <ring_buffer_init+0x98>  // b.any
 610:	a94153f3 	ldp	x19, x20, [sp, #16]
 614:	a8ca7bfd 	ldp	x29, x30, [sp], #160
 618:	d65f03c0 	ret
 61c:	94000000 	bl	0 <__stack_chk_fail>

0000000000000620 <ring_buffer_create>:
 620:	a9b57bfd 	stp	x29, x30, [sp, #-176]!
 624:	910003fd 	mov	x29, sp
 628:	a90153f3 	stp	x19, x20, [sp, #16]
 62c:	d50320ff 	xpaclri
 630:	aa0003f4 	mov	x20, x0
 634:	aa1e03e0 	mov	x0, x30
 638:	a9078be1 	stp	x1, x2, [sp, #120]
 63c:	a90893e3 	stp	x3, x4, [sp, #136]
 640:	a9099be5 	stp	x5, x6, [sp, #152]
 644:	f90057e7 	str	x7, [sp, #168]
 648:	94000000 	bl	0 <_mcount>
 64c:	90000000 	adrp	x0, 0 <kmalloc_caches>
 650:	d5384103 	mrs	x3, sp_el0
 654:	f9426c61 	ldr	x1, [x3, #1240]
 658:	f90037e1 	str	x1, [sp, #104]
 65c:	d2800001 	mov	x1, #0x0                   	// #0
 660:	d2804002 	mov	x2, #0x200                 	// #512
 664:	f9400000 	ldr	x0, [x0]
 668:	5281b801 	mov	w1, #0xdc0                 	// #3520
 66c:	94000000 	bl	0 <kmem_cache_alloc_trace>
 670:	aa0003f3 	mov	x19, x0
 674:	b40003a0 	cbz	x0, 6e8 <ring_buffer_create+0xc8>
 678:	9102c3e1 	add	x1, sp, #0xb0
 67c:	a90487e1 	stp	x1, x1, [sp, #72]
 680:	9101c3e2 	add	x2, sp, #0x70
 684:	128006e3 	mov	w3, #0xffffffc8            	// #-56
 688:	f9002fe2 	str	x2, [sp, #88]
 68c:	290c7fe3 	stp	w3, wzr, [sp, #96]
 690:	aa1403e1 	mov	x1, x20
 694:	a94497e4 	ldp	x4, x5, [sp, #72]
 698:	a90217e4 	stp	x4, x5, [sp, #32]
 69c:	910083e2 	add	x2, sp, #0x20
 6a0:	a94597e4 	ldp	x4, x5, [sp, #88]
 6a4:	a90317e4 	stp	x4, x5, [sp, #48]
 6a8:	97ffff3a 	bl	390 <__init_ring_buffer.constprop.0>
 6ac:	35000160 	cbnz	w0, 6d8 <ring_buffer_create+0xb8>
 6b0:	d5384100 	mrs	x0, sp_el0
 6b4:	f94037e2 	ldr	x2, [sp, #104]
 6b8:	f9426c01 	ldr	x1, [x0, #1240]
 6bc:	eb010042 	subs	x2, x2, x1
 6c0:	d2800001 	mov	x1, #0x0                   	// #0
 6c4:	54000161 	b.ne	6f0 <ring_buffer_create+0xd0>  // b.any
 6c8:	aa1303e0 	mov	x0, x19
 6cc:	a94153f3 	ldp	x19, x20, [sp, #16]
 6d0:	a8cb7bfd 	ldp	x29, x30, [sp], #176
 6d4:	d65f03c0 	ret
 6d8:	aa1303e0 	mov	x0, x19
 6dc:	d2800193 	mov	x19, #0xc                   	// #12
 6e0:	94000000 	bl	0 <kfree>
 6e4:	17fffff3 	b	6b0 <ring_buffer_create+0x90>
 6e8:	d2800193 	mov	x19, #0xc                   	// #12
 6ec:	17fffff1 	b	6b0 <ring_buffer_create+0x90>
 6f0:	94000000 	bl	0 <__stack_chk_fail>

00000000000006f4 <ring_buffer_destroy>:
 6f4:	a9be7bfd 	stp	x29, x30, [sp, #-32]!
 6f8:	910003fd 	mov	x29, sp
 6fc:	a90153f3 	stp	x19, x20, [sp, #16]
 700:	aa0003f4 	mov	x20, x0
 704:	d50320ff 	xpaclri
 708:	9100a293 	add	x19, x20, #0x28
 70c:	aa1e03e0 	mov	x0, x30
 710:	9102a294 	add	x20, x20, #0xa8
 714:	94000000 	bl	0 <_mcount>
 718:	f9400260 	ldr	x0, [x19]
 71c:	52800141 	mov	w1, #0xa                   	// #10
 720:	91002273 	add	x19, x19, #0x8
 724:	b4000040 	cbz	x0, 72c <ring_buffer_destroy+0x38>
 728:	94000000 	bl	0 <free_pages>
 72c:	eb14027f 	cmp	x19, x20
 730:	54ffff41 	b.ne	718 <ring_buffer_destroy+0x24>  // b.any
 734:	a94153f3 	ldp	x19, x20, [sp, #16]
 738:	a8c27bfd 	ldp	x29, x30, [sp], #32
 73c:	d65f03c0 	ret

0000000000000740 <ring_buffer_get_mapped>:
 740:	a9bc7bfd 	stp	x29, x30, [sp, #-64]!
 744:	910003fd 	mov	x29, sp
 748:	a90153f3 	stp	x19, x20, [sp, #16]
 74c:	a9025bf5 	stp	x21, x22, [sp, #32]
 750:	f9001bf7 	str	x23, [sp, #48]
 754:	aa0103f4 	mov	x20, x1
 758:	d50320ff 	xpaclri
 75c:	91010a94 	add	x20, x20, #0x42
 760:	aa0003f3 	mov	x19, x0
 764:	927ae694 	and	x20, x20, #0xffffffffffffffc0
 768:	aa0203f7 	mov	x23, x2
 76c:	aa1e03e0 	mov	x0, x30
 770:	d1000e96 	sub	x22, x20, #0x3
 774:	94000000 	bl	0 <_mcount>
 778:	d53b4235 	mrs	x21, daif
 77c:	121902a0 	and	w0, w21, #0x80
 780:	35000060 	cbnz	w0, 78c <ring_buffer_get_mapped+0x4c>
 784:	d2800c00 	mov	x0, #0x60                  	// #96
 788:	d50342df 	msr	daifset, #0x2
 78c:	d2800002 	mov	x2, #0x0                   	// #0
 790:	91009260 	add	x0, x19, #0x24
 794:	52800023 	mov	w3, #0x1                   	// #1
 798:	f9800011 	prfm	pstl1strm, [x0]
 79c:	885ffc01 	ldaxr	w1, [x0]
 7a0:	4a020024 	eor	w4, w1, w2
 7a4:	35000064 	cbnz	w4, 7b0 <ring_buffer_get_mapped+0x70>
 7a8:	88047c03 	stxr	w4, w3, [x0]
 7ac:	35ffff84 	cbnz	w4, 79c <ring_buffer_get_mapped+0x5c>
 7b0:	35000c61 	cbnz	w1, 93c <ring_buffer_get_mapped+0x1fc>
 7b4:	79402261 	ldrh	w1, [x19, #16]
 7b8:	f9400e60 	ldr	x0, [x19, #24]
 7bc:	8b21ce62 	add	x2, x19, w1, sxtw #3
 7c0:	8b140003 	add	x3, x0, x20
 7c4:	f9405442 	ldr	x2, [x2, #168]
 7c8:	eb02007f 	cmp	x3, x2
 7cc:	54000688 	b.hi	89c <ring_buffer_get_mapped+0x15c>  // b.pmore
 7d0:	b9402266 	ldr	w6, [x19, #32]
 7d4:	34000086 	cbz	w6, 7e4 <ring_buffer_get_mapped+0xa4>
 7d8:	79400262 	ldrh	w2, [x19]
 7dc:	6b01005f 	cmp	w2, w1
 7e0:	540008e0 	b.eq	8fc <ring_buffer_get_mapped+0x1bc>  // b.none
 7e4:	8b212e65 	add	x5, x19, w1, uxth #3
 7e8:	f9000e63 	str	x3, [x19, #24]
 7ec:	91010062 	add	x2, x3, #0x40
 7f0:	f94054a4 	ldr	x4, [x5, #168]
 7f4:	eb02009f 	cmp	x4, x2
 7f8:	54000329 	b.ls	85c <ring_buffer_get_mapped+0x11c>  // b.plast
 7fc:	39400801 	ldrb	w1, [x0, #2]
 800:	531f7ac4 	lsl	w4, w22, #1
 804:	53073ac3 	ubfx	w3, w22, #7, #8
 808:	52800002 	mov	w2, #0x0                   	// #0
 80c:	39000004 	strb	w4, [x0]
 810:	330f56c1 	bfxil	w1, w22, #15, #7
 814:	39000403 	strb	w3, [x0, #1]
 818:	39000801 	strb	w1, [x0, #2]
 81c:	91009261 	add	x1, x19, #0x24
 820:	089ffc22 	stlrb	w2, [x1]
 824:	d51b4235 	msr	daif, x21
 828:	d503201f 	nop
 82c:	91000c00 	add	x0, x0, #0x3
 830:	b40000d7 	cbz	x23, 848 <ring_buffer_get_mapped+0x108>
 834:	f94014a1 	ldr	x1, [x5, #40]
 838:	f94094a2 	ldr	x2, [x5, #296]
 83c:	cb010001 	sub	x1, x0, x1
 840:	8b020021 	add	x1, x1, x2
 844:	f90002e1 	str	x1, [x23]
 848:	a94153f3 	ldp	x19, x20, [sp, #16]
 84c:	a9425bf5 	ldp	x21, x22, [sp, #32]
 850:	f9401bf7 	ldr	x23, [sp, #48]
 854:	a8c47bfd 	ldp	x29, x30, [sp], #64
 858:	d65f03c0 	ret
 85c:	11000421 	add	w1, w1, #0x1
 860:	b941aa62 	ldr	w2, [x19, #424]
 864:	12003c21 	and	w1, w1, #0xffff
 868:	cb030084 	sub	x4, x4, x3
 86c:	79002261 	strh	w1, [x19, #16]
 870:	8b0402d6 	add	x22, x22, x4
 874:	6b02003f 	cmp	w1, w2
 878:	540000a3 	b.cc	88c <ring_buffer_get_mapped+0x14c>  // b.lo, b.ul, b.last
 87c:	110004c6 	add	w6, w6, #0x1
 880:	52800001 	mov	w1, #0x0                   	// #0
 884:	7900227f 	strh	wzr, [x19, #16]
 888:	b9002266 	str	w6, [x19, #32]
 88c:	8b21ce61 	add	x1, x19, w1, sxtw #3
 890:	f9401421 	ldr	x1, [x1, #40]
 894:	f9000e61 	str	x1, [x19, #24]
 898:	17ffffd9 	b	7fc <ring_buffer_get_mapped+0xbc>
 89c:	91000c03 	add	x3, x0, #0x3
 8a0:	39400801 	ldrb	w1, [x0, #2]
 8a4:	cb030042 	sub	x2, x2, x3
 8a8:	531f1843 	ubfiz	w3, w2, #1, #7
 8ac:	330f5441 	bfxil	w1, w2, #15, #7
 8b0:	53073844 	ubfx	w4, w2, #7, #8
 8b4:	32000063 	orr	w3, w3, #0x1
 8b8:	39000003 	strb	w3, [x0]
 8bc:	39000404 	strb	w4, [x0, #1]
 8c0:	39000801 	strb	w1, [x0, #2]
 8c4:	79402261 	ldrh	w1, [x19, #16]
 8c8:	b941aa60 	ldr	w0, [x19, #424]
 8cc:	11000421 	add	w1, w1, #0x1
 8d0:	b9402266 	ldr	w6, [x19, #32]
 8d4:	12003c21 	and	w1, w1, #0xffff
 8d8:	79002261 	strh	w1, [x19, #16]
 8dc:	6b00003f 	cmp	w1, w0
 8e0:	54000222 	b.cs	924 <ring_buffer_get_mapped+0x1e4>  // b.hs, b.nlast
 8e4:	2a0103e0 	mov	w0, w1
 8e8:	8b20ce60 	add	x0, x19, w0, sxtw #3
 8ec:	f9401400 	ldr	x0, [x0, #40]
 8f0:	f9000e60 	str	x0, [x19, #24]
 8f4:	8b140003 	add	x3, x0, x20
 8f8:	17ffffb7 	b	7d4 <ring_buffer_get_mapped+0x94>
 8fc:	f9400662 	ldr	x2, [x19, #8]
 900:	eb03005f 	cmp	x2, x3
 904:	54fff702 	b.cs	7e4 <ring_buffer_get_mapped+0xa4>  // b.hs, b.nlast
 908:	91009261 	add	x1, x19, #0x24
 90c:	52800000 	mov	w0, #0x0                   	// #0
 910:	089ffc20 	stlrb	w0, [x1]
 914:	d51b4235 	msr	daif, x21
 918:	d503201f 	nop
 91c:	d2800000 	mov	x0, #0x0                   	// #0
 920:	17ffffca 	b	848 <ring_buffer_get_mapped+0x108>
 924:	110004c6 	add	w6, w6, #0x1
 928:	52800000 	mov	w0, #0x0                   	// #0
 92c:	52800001 	mov	w1, #0x0                   	// #0
 930:	7900227f 	strh	wzr, [x19, #16]
 934:	b9002266 	str	w6, [x19, #32]
 938:	17ffffec 	b	8e8 <ring_buffer_get_mapped+0x1a8>
 93c:	94000000 	bl	0 <queued_spin_lock_slowpath>
 940:	17ffff9d 	b	7b4 <ring_buffer_get_mapped+0x74>

0000000000000944 <ring_buffer_get>:
 944:	a9be7bfd 	stp	x29, x30, [sp, #-32]!
 948:	910003fd 	mov	x29, sp
 94c:	a90153f3 	stp	x19, x20, [sp, #16]
 950:	d50320ff 	xpaclri
 954:	aa0003f3 	mov	x19, x0
 958:	aa0103f4 	mov	x20, x1
 95c:	aa1e03e0 	mov	x0, x30
 960:	94000000 	bl	0 <_mcount>
 964:	aa1403e1 	mov	x1, x20
 968:	aa1303e0 	mov	x0, x19
 96c:	d2800002 	mov	x2, #0x0                   	// #0
 970:	94000000 	bl	740 <ring_buffer_get_mapped>
 974:	a94153f3 	ldp	x19, x20, [sp, #16]
 978:	a8c27bfd 	ldp	x29, x30, [sp], #32
 97c:	d65f03c0 	ret

0000000000000980 <ring_buffer_put>:
 980:	a9bd7bfd 	stp	x29, x30, [sp, #-48]!
 984:	910003fd 	mov	x29, sp
 988:	a90153f3 	stp	x19, x20, [sp, #16]
 98c:	f90013f5 	str	x21, [sp, #32]
 990:	d50320ff 	xpaclri
 994:	aa0003f3 	mov	x19, x0
 998:	aa0103f5 	mov	x21, x1
 99c:	aa1e03e0 	mov	x0, x30
 9a0:	94000000 	bl	0 <_mcount>
 9a4:	d53b4234 	mrs	x20, daif
 9a8:	12190280 	and	w0, w20, #0x80
 9ac:	35000060 	cbnz	w0, 9b8 <ring_buffer_put+0x38>
 9b0:	d2800c00 	mov	x0, #0x60                  	// #96
 9b4:	d50342df 	msr	daifset, #0x2
 9b8:	d2800002 	mov	x2, #0x0                   	// #0
 9bc:	91009260 	add	x0, x19, #0x24
 9c0:	52800023 	mov	w3, #0x1                   	// #1
 9c4:	f9800011 	prfm	pstl1strm, [x0]
 9c8:	885ffc01 	ldaxr	w1, [x0]
 9cc:	4a020024 	eor	w4, w1, w2
 9d0:	35000064 	cbnz	w4, 9dc <ring_buffer_put+0x5c>
 9d4:	88047c03 	stxr	w4, w3, [x0]
 9d8:	35ffff84 	cbnz	w4, 9c8 <ring_buffer_put+0x48>
 9dc:	350006a1 	cbnz	w1, ab0 <ring_buffer_put+0x130>
 9e0:	385fd2a0 	ldurb	w0, [x21, #-3]
 9e4:	32000000 	orr	w0, w0, #0x1
 9e8:	381fd2a0 	sturb	w0, [x21, #-3]
 9ec:	f9400661 	ldr	x1, [x19, #8]
 9f0:	14000004 	b	a00 <ring_buffer_put+0x80>
 9f4:	f9400e60 	ldr	x0, [x19, #24]
 9f8:	eb01001f 	cmp	x0, x1
 9fc:	54000480 	b.eq	a8c <ring_buffer_put+0x10c>  // b.none
 a00:	39400020 	ldrb	w0, [x1]
 a04:	36000440 	tbz	w0, #0, a8c <ring_buffer_put+0x10c>
 a08:	39400024 	ldrb	w4, [x1]
 a0c:	39400423 	ldrb	w3, [x1, #1]
 a10:	39400822 	ldrb	w2, [x1, #2]
 a14:	d3411c84 	ubfx	x4, x4, #1, #7
 a18:	79400260 	ldrh	w0, [x19]
 a1c:	f9400661 	ldr	x1, [x19, #8]
 a20:	aa031c83 	orr	x3, x4, x3, lsl #7
 a24:	d3711842 	ubfiz	x2, x2, #15, #7
 a28:	8b20ce64 	add	x4, x19, w0, sxtw #3
 a2c:	aa030042 	orr	x2, x2, x3
 a30:	91000c42 	add	x2, x2, #0x3
 a34:	8b020021 	add	x1, x1, x2
 a38:	f9000661 	str	x1, [x19, #8]
 a3c:	f9405482 	ldr	x2, [x4, #168]
 a40:	eb02003f 	cmp	x1, x2
 a44:	54fffd81 	b.ne	9f4 <ring_buffer_put+0x74>  // b.any
 a48:	11000400 	add	w0, w0, #0x1
 a4c:	b941aa61 	ldr	w1, [x19, #424]
 a50:	12003c00 	and	w0, w0, #0xffff
 a54:	79000260 	strh	w0, [x19]
 a58:	6b01001f 	cmp	w0, w1
 a5c:	540000c3 	b.cc	a74 <ring_buffer_put+0xf4>  // b.lo, b.ul, b.last
 a60:	b9402261 	ldr	w1, [x19, #32]
 a64:	52800000 	mov	w0, #0x0                   	// #0
 a68:	7900027f 	strh	wzr, [x19]
 a6c:	51000421 	sub	w1, w1, #0x1
 a70:	b9002261 	str	w1, [x19, #32]
 a74:	8b20ce60 	add	x0, x19, w0, sxtw #3
 a78:	f9401401 	ldr	x1, [x0, #40]
 a7c:	f9000661 	str	x1, [x19, #8]
 a80:	f9400e60 	ldr	x0, [x19, #24]
 a84:	eb01001f 	cmp	x0, x1
 a88:	54fffbc1 	b.ne	a00 <ring_buffer_put+0x80>  // b.any
 a8c:	52800000 	mov	w0, #0x0                   	// #0
 a90:	91009261 	add	x1, x19, #0x24
 a94:	089ffc20 	stlrb	w0, [x1]
 a98:	d51b4234 	msr	daif, x20
 a9c:	d503201f 	nop
 aa0:	a94153f3 	ldp	x19, x20, [sp, #16]
 aa4:	f94013f5 	ldr	x21, [sp, #32]
 aa8:	a8c37bfd 	ldp	x29, x30, [sp], #48
 aac:	d65f03c0 	ret
 ab0:	94000000 	bl	0 <queued_spin_lock_slowpath>
 ab4:	17ffffcb 	b	9e0 <ring_buffer_put+0x60>

Disassembly of section .init.text:

0000000000000000 <_identify_myself>:
   0:	a9bf7bfd 	stp	x29, x30, [sp, #-16]!
   4:	910003fd 	mov	x29, sp
   8:	d50320ff 	xpaclri
   c:	aa1e03e0 	mov	x0, x30
  10:	94000000 	bl	0 <_mcount>
  14:	90000002 	adrp	x2, 0 <my_nid>
  18:	52800021 	mov	w1, #0x1                   	// #1
  1c:	90000000 	adrp	x0, 0 <_identify_myself>
  20:	91000000 	add	x0, x0, #0x0
  24:	b9000041 	str	w1, [x2]
  28:	94000000 	bl	0 <printk>
  2c:	a8c17bfd 	ldp	x29, x30, [sp], #16
  30:	d65f03c0 	ret

0000000000000034 <identify_myself>:
  34:	a9bd7bfd 	stp	x29, x30, [sp, #-48]!
  38:	910003fd 	mov	x29, sp
  3c:	a90153f3 	stp	x19, x20, [sp, #16]
  40:	a9025bf5 	stp	x21, x22, [sp, #32]
  44:	d50320ff 	xpaclri
  48:	aa1e03e0 	mov	x0, x30
  4c:	94000000 	bl	0 <_mcount>
  50:	90000000 	adrp	x0, 0 <_identify_myself>
  54:	91000000 	add	x0, x0, #0x0
  58:	94000000 	bl	0 <printk>
  5c:	90000000 	adrp	x0, 0 <init_net>
  60:	aa0003e4 	mov	x4, x0
  64:	90000001 	adrp	x1, 0 <_identify_myself>
  68:	91000021 	add	x1, x1, #0x0
  6c:	f9400000 	ldr	x0, [x0]
  70:	91004021 	add	x1, x1, #0x10
  74:	91000084 	add	x4, x4, #0x0
  78:	d1014000 	sub	x0, x0, #0x50
  7c:	91014002 	add	x2, x0, #0x50
  80:	eb04005f 	cmp	x2, x4
  84:	54000220 	b.eq	c8 <identify_myself+0x94>  // b.none
  88:	f9415802 	ldr	x2, [x0, #688]
  8c:	f9400842 	ldr	x2, [x2, #16]
  90:	b4000162 	cbz	x2, bc <identify_myself+0x88>
  94:	b9403045 	ldr	w5, [x2, #48]
  98:	d2800003 	mov	x3, #0x0                   	// #0
  9c:	b8637836 	ldr	w22, [x1, x3, lsl #2]
  a0:	91000463 	add	x3, x3, #0x1
  a4:	6b1600bf 	cmp	w5, w22
  a8:	54000120 	b.eq	cc <identify_myself+0x98>  // b.none
  ac:	f100807f 	cmp	x3, #0x20
  b0:	54ffff61 	b.ne	9c <identify_myself+0x68>  // b.any
  b4:	f9400842 	ldr	x2, [x2, #16]
  b8:	17fffff6 	b	90 <identify_myself+0x5c>
  bc:	f9402800 	ldr	x0, [x0, #80]
  c0:	d1014000 	sub	x0, x0, #0x50
  c4:	17ffffee 	b	7c <identify_myself+0x48>
  c8:	12800016 	mov	w22, #0xffffffff            	// #-1
  cc:	90000013 	adrp	x19, 0 <_identify_myself>
  d0:	91000273 	add	x19, x19, #0x0
  d4:	90000015 	adrp	x21, 0 <_identify_myself>
  d8:	91004273 	add	x19, x19, #0x10
  dc:	910002b5 	add	x21, x21, #0x0
  e0:	52800014 	mov	w20, #0x0                   	// #0
  e4:	b9400260 	ldr	w0, [x19]
  e8:	90000001 	adrp	x1, 0 <_identify_myself>
  ec:	91000021 	add	x1, x1, #0x0
  f0:	6b16001f 	cmp	w0, w22
  f4:	540000a1 	b.ne	108 <identify_myself+0xd4>  // b.any
  f8:	90000000 	adrp	x0, 0 <my_nid>
  fc:	90000001 	adrp	x1, 0 <_identify_myself>
 100:	91000021 	add	x1, x1, #0x0
 104:	b9000014 	str	w20, [x0]
 108:	aa1303e3 	mov	x3, x19
 10c:	2a1403e2 	mov	w2, w20
 110:	aa1503e0 	mov	x0, x21
 114:	11000694 	add	w20, w20, #0x1
 118:	94000000 	bl	0 <printk>
 11c:	91001273 	add	x19, x19, #0x4
 120:	7100829f 	cmp	w20, #0x20
 124:	54fffe01 	b.ne	e4 <identify_myself+0xb0>  // b.any
 128:	90000001 	adrp	x1, 0 <my_nid>
 12c:	52800020 	mov	w0, #0x1                   	// #1
 130:	b9400021 	ldr	w1, [x1]
 134:	36f800a1 	tbz	w1, #31, 148 <identify_myself+0x114>
 138:	90000000 	adrp	x0, 0 <_identify_myself>
 13c:	91000000 	add	x0, x0, #0x0
 140:	94000000 	bl	0 <printk>
 144:	52800000 	mov	w0, #0x0                   	// #0
 148:	a94153f3 	ldp	x19, x20, [sp, #16]
 14c:	a9425bf5 	ldp	x21, x22, [sp, #32]
 150:	a8c37bfd 	ldp	x29, x30, [sp], #48
 154:	d65f03c0 	ret

0000000000000158 <init_module>:
 158:	a9b97bfd 	stp	x29, x30, [sp, #-112]!
 15c:	910003fd 	mov	x29, sp
 160:	a90153f3 	stp	x19, x20, [sp, #16]
 164:	a9025bf5 	stp	x21, x22, [sp, #32]
 168:	d50320ff 	xpaclri
 16c:	aa1e03e0 	mov	x0, x30
 170:	94000000 	bl	0 <_mcount>
 174:	52800036 	mov	w22, #0x1                   	// #1
 178:	90000001 	adrp	x1, 0 <_identify_myself>
 17c:	91000021 	add	x1, x1, #0x0
 180:	90000002 	adrp	x2, 0 <popcorn_ipi_handler_ptr>
 184:	90000000 	adrp	x0, 0 <_identify_myself>
 188:	91000000 	add	x0, x0, #0x0
 18c:	f9000041 	str	x1, [x2]
 190:	94000000 	bl	0 <printk>
 194:	d2900221 	mov	x1, #0x8011                	// #32785
 198:	d2800022 	mov	x2, #0x1                   	// #1
 19c:	f2a04001 	movk	x1, #0x200, lsl #16
 1a0:	d2b00000 	mov	x0, #0x80000000            	// #2147483648
 1a4:	94000000 	bl	0 <memremap>
 1a8:	aa0003f3 	mov	x19, x0
 1ac:	d2900221 	mov	x1, #0x8011                	// #32785
 1b0:	d2800022 	mov	x2, #0x1                   	// #1
 1b4:	f2a04001 	movk	x1, #0x200, lsl #16
 1b8:	d2b20000 	mov	x0, #0x90000000            	// #2415919104
 1bc:	94000000 	bl	0 <memremap>
 1c0:	aa0003f4 	mov	x20, x0
 1c4:	d2900222 	mov	x2, #0x8011                	// #32785
 1c8:	52800001 	mov	w1, #0x0                   	// #0
 1cc:	f2a04002 	movk	x2, #0x200, lsl #16
 1d0:	91004400 	add	x0, x0, #0x11
 1d4:	f900029f 	str	xzr, [x20]
 1d8:	f900069f 	str	xzr, [x20, #8]
 1dc:	94000000 	bl	0 <memset>
 1e0:	39004296 	strb	w22, [x20, #16]
 1e4:	f900027f 	str	xzr, [x19]
 1e8:	d2900222 	mov	x2, #0x8011                	// #32785
 1ec:	f900067f 	str	xzr, [x19, #8]
 1f0:	f2a04002 	movk	x2, #0x200, lsl #16
 1f4:	52800001 	mov	w1, #0x0                   	// #0
 1f8:	91004660 	add	x0, x19, #0x11
 1fc:	94000000 	bl	0 <memset>
 200:	39004276 	strb	w22, [x19, #16]
 204:	90000000 	adrp	x0, 0 <_identify_myself>
 208:	91000000 	add	x0, x0, #0x0
 20c:	94000000 	bl	0 <pcn_kmsg_set_transport>
 210:	90000000 	adrp	x0, 0 <kmalloc_caches>
 214:	d2800502 	mov	x2, #0x28                  	// #40
 218:	52819801 	mov	w1, #0xcc0                 	// #3264
 21c:	f9400000 	ldr	x0, [x0]
 220:	94000000 	bl	0 <kmem_cache_alloc_trace>
 224:	aa0003f5 	mov	x21, x0
 228:	90000000 	adrp	x0, 0 <_identify_myself>
 22c:	a9014eb4 	stp	x20, x19, [x21, #16]
 230:	f9000015 	str	x21, [x0]
 234:	94000000 	bl	0 <_identify_myself>
 238:	90000002 	adrp	x2, 0 <my_nid>
 23c:	2a1603e1 	mov	w1, w22
 240:	52800000 	mov	w0, #0x0                   	// #0
 244:	b9400042 	ldr	w2, [x2]
 248:	b90002a2 	str	w2, [x21]
 24c:	94000000 	bl	0 <set_popcorn_node_online>
 250:	2a1603e1 	mov	w1, w22
 254:	52800020 	mov	w0, #0x1                   	// #1
 258:	94000000 	bl	0 <set_popcorn_node_online>
 25c:	52827100 	mov	w0, #0x1388                	// #5000
 260:	94000000 	bl	0 <msleep>
 264:	90000001 	adrp	x1, 0 <popcorn_shm_slices>
 268:	90000000 	adrp	x0, 0 <_identify_myself>
 26c:	91000000 	add	x0, x0, #0x0
 270:	b9400021 	ldr	w1, [x1]
 274:	94000000 	bl	0 <printk>
 278:	90000000 	adrp	x0, 0 <_identify_myself>
 27c:	91000000 	add	x0, x0, #0x0
 280:	94000000 	bl	0 <printk>
 284:	52800040 	mov	w0, #0x2                   	// #2
 288:	94000000 	bl	0 <broadcast_my_node_info>
 28c:	90000000 	adrp	x0, 0 <_identify_myself>
 290:	91000000 	add	x0, x0, #0x0
 294:	94000000 	bl	0 <printk>
 298:	90000000 	adrp	x0, 0 <_identify_myself>
 29c:	91000000 	add	x0, x0, #0x0
 2a0:	94000000 	bl	0 <printk>
 2a4:	52800042 	mov	w2, #0x2                   	// #2
 2a8:	d2a000a1 	mov	x1, #0x50000               	// #327680
 2ac:	d2a002a0 	mov	x0, #0x150000              	// #1376256
 2b0:	94000000 	bl	0 <online_pages>
 2b4:	d2d00001 	mov	x1, #0x800000000000        	// #140737488355328
 2b8:	90000000 	adrp	x0, 0 <_identify_myself>
 2bc:	91000000 	add	x0, x0, #0x0
 2c0:	94000000 	bl	0 <printk>
 2c4:	b2534be1 	mov	x1, #0xffffe00000000000    	// #-35184372088832
 2c8:	90000000 	adrp	x0, 0 <_identify_myself>
 2cc:	91000000 	add	x0, x0, #0x0
 2d0:	94000000 	bl	0 <printk>
 2d4:	d2a20001 	mov	x1, #0x10000000            	// #268435456
 2d8:	90000000 	adrp	x0, 0 <_identify_myself>
 2dc:	f2ffffe1 	movk	x1, #0xffff, lsl #48
 2e0:	91000000 	add	x0, x0, #0x0
 2e4:	94000000 	bl	0 <printk>
 2e8:	d2a20002 	mov	x2, #0x10000000            	// #268435456
 2ec:	d2a10001 	mov	x1, #0x8000000             	// #134217728
 2f0:	f2ffffe2 	movk	x2, #0xffff, lsl #48
 2f4:	f2ffffe1 	movk	x1, #0xffff, lsl #48
 2f8:	90000000 	adrp	x0, 0 <_identify_myself>
 2fc:	91000000 	add	x0, x0, #0x0
 300:	94000000 	bl	0 <printk>
 304:	d2dbc001 	mov	x1, #0xde0000000000        	// #244091581366272
 308:	b2534be2 	mov	x2, #0xffffe00000000000    	// #-35184372088832
 30c:	f2ffffe1 	movk	x1, #0xffff, lsl #48
 310:	90000000 	adrp	x0, 0 <_identify_myself>
 314:	91000000 	add	x0, x0, #0x0
 318:	94000000 	bl	0 <printk>
 31c:	d2bfdc01 	mov	x1, #0xfee00000            	// #4276092928
 320:	b26babe2 	mov	x2, #0xffffffffffe00000    	// #-2097152
 324:	f2dbbfe1 	movk	x1, #0xddff, lsl #32
 328:	f2dbbfe2 	movk	x2, #0xddff, lsl #32
 32c:	f2ffffe1 	movk	x1, #0xffff, lsl #48
 330:	90000000 	adrp	x0, 0 <_identify_myself>
 334:	91000000 	add	x0, x0, #0x0
 338:	94000000 	bl	0 <printk>
 33c:	d2d20002 	mov	x2, #0x900000000000        	// #158329674399744
 340:	b26287e1 	mov	x1, #0xffffffffc0000000    	// #-1073741824
 344:	f2ffffe2 	movk	x2, #0xffff, lsl #48
 348:	f2d10fe1 	movk	x1, #0x887f, lsl #32
 34c:	90000000 	adrp	x0, 0 <_identify_myself>
 350:	91000000 	add	x0, x0, #0x0
 354:	94000000 	bl	0 <printk>
 358:	90000000 	adrp	x0, 0 <_identify_myself>
 35c:	91000000 	add	x0, x0, #0x0
 360:	94000000 	bl	0 <printk>
 364:	14000002 	b	36c <init_module+0x214>
 368:	1400000a 	b	390 <init_module+0x238>
 36c:	90000001 	adrp	x1, 0 <cpu_hwcaps>
 370:	d280e0e2 	mov	x2, #0x707                 	// #1799
 374:	d281e0e0 	mov	x0, #0xf07                 	// #3847
 378:	f2e01d02 	movk	x2, #0xe8, lsl #48
 37c:	f9400021 	ldr	x1, [x1]
 380:	f2e01d00 	movk	x0, #0xe8, lsl #48
 384:	7209003f 	tst	w1, #0x800000
 388:	9a800042 	csel	x2, x2, x0, eq	// eq = none
 38c:	14000007 	b	3a8 <init_module+0x250>
 390:	d503201f 	nop
 394:	d280e0e2 	mov	x2, #0x707                 	// #1799
 398:	f2e01d02 	movk	x2, #0xe8, lsl #48
 39c:	14000003 	b	3a8 <init_module+0x250>
 3a0:	d281e0e2 	mov	x2, #0xf07                 	// #3847
 3a4:	f2e01d02 	movk	x2, #0xe8, lsl #48
 3a8:	90000013 	adrp	x19, 0 <remote_address_space>
 3ac:	d2b80001 	mov	x1, #0xc0000000            	// #3221225472
 3b0:	d2a80000 	mov	x0, #0x40000000            	// #1073741824
 3b4:	94000000 	bl	0 <__ioremap>
 3b8:	f9000260 	str	x0, [x19]
 3bc:	14000005 	b	3d0 <init_module+0x278>
 3c0:	d503201f 	nop
 3c4:	d280e0e2 	mov	x2, #0x707                 	// #1799
 3c8:	f2e01d02 	movk	x2, #0xe8, lsl #48
 3cc:	1400000c 	b	3fc <init_module+0x2a4>
 3d0:	90000001 	adrp	x1, 0 <cpu_hwcaps>
 3d4:	d280e0e2 	mov	x2, #0x707                 	// #1799
 3d8:	d281e0e0 	mov	x0, #0xf07                 	// #3847
 3dc:	f2e01d02 	movk	x2, #0xe8, lsl #48
 3e0:	f9400021 	ldr	x1, [x1]
 3e4:	f2e01d00 	movk	x0, #0xe8, lsl #48
 3e8:	7209003f 	tst	w1, #0x800000
 3ec:	9a800042 	csel	x2, x2, x0, eq	// eq = none
 3f0:	14000003 	b	3fc <init_module+0x2a4>
 3f4:	d281e0e2 	mov	x2, #0xf07                 	// #3847
 3f8:	f2e01d02 	movk	x2, #0xe8, lsl #48
 3fc:	b24077e1 	mov	x1, #0x3fffffff            	// #1073741823
 400:	90000014 	adrp	x20, 0 <remote_address_space_high>
 404:	f2c00021 	movk	x1, #0x1, lsl #32
 408:	d2c00020 	mov	x0, #0x100000000           	// #4294967296
 40c:	94000000 	bl	0 <__ioremap>
 410:	f9000280 	str	x0, [x20]
 414:	90000001 	adrp	x1, 0 <_identify_myself>
 418:	52800604 	mov	w4, #0x30                  	// #48
 41c:	91000020 	add	x0, x1, #0x0
 420:	2a0403e3 	mov	w3, w4
 424:	52800182 	mov	w2, #0xc                   	// #12
 428:	528004e1 	mov	w1, #0x27                  	// #39
 42c:	94000000 	bl	0 <printk>
 430:	f9400282 	ldr	x2, [x20]
 434:	90000000 	adrp	x0, 0 <_identify_myself>
 438:	f9400261 	ldr	x1, [x19]
 43c:	91000000 	add	x0, x0, #0x0
 440:	d2800714 	mov	x20, #0x38                  	// #56
 444:	94000000 	bl	0 <printk>
 448:	d2800003 	mov	x3, #0x0                   	// #0
 44c:	52800002 	mov	w2, #0x0                   	// #0
 450:	52800001 	mov	w1, #0x0                   	// #0
 454:	52819800 	mov	w0, #0xcc0                 	// #3264
 458:	94000000 	bl	0 <__alloc_pages_nodemask>
 45c:	aa0003f3 	mov	x19, x0
 460:	aa1303e1 	mov	x1, x19
 464:	aa1403e2 	mov	x2, x20
 468:	9100c3e0 	add	x0, sp, #0x30
 46c:	94000000 	bl	0 <memcpy>
 470:	90000000 	adrp	x0, 0 <memstart_addr>
 474:	d2dbc005 	mov	x5, #0xde0000000000        	// #244091581366272
 478:	f2ffffe5 	movk	x5, #0xffff, lsl #48
 47c:	d28db6e4 	mov	x4, #0x6db7                	// #28087
 480:	f9400003 	ldr	x3, [x0]
 484:	f2b6db64 	movk	x4, #0xb6db, lsl #16
 488:	f2db6da4 	movk	x4, #0xdb6d, lsl #32
 48c:	aa1303e1 	mov	x1, x19
 490:	f2edb6c4 	movk	x4, #0x6db6, lsl #48
 494:	9100c3e2 	add	x2, sp, #0x30
 498:	934cfc63 	asr	x3, x3, #12
 49c:	90000000 	adrp	x0, 0 <_identify_myself>
 4a0:	91000000 	add	x0, x0, #0x0
 4a4:	9b149463 	msub	x3, x3, x20, x5
 4a8:	cb030263 	sub	x3, x19, x3
 4ac:	9343fc63 	asr	x3, x3, #3
 4b0:	9b047c63 	mul	x3, x3, x4
 4b4:	d374cc63 	lsl	x3, x3, #12
 4b8:	94000000 	bl	0 <printk>
 4bc:	a94153f3 	ldp	x19, x20, [sp, #16]
 4c0:	52800000 	mov	w0, #0x0                   	// #0
 4c4:	a9425bf5 	ldp	x21, x22, [sp, #32]
 4c8:	a8c77bfd 	ldp	x29, x30, [sp], #112
 4cc:	d65f03c0 	ret

Disassembly of section .exit.text:

0000000000000000 <cleanup_module>:
   0:	a9bf7bfd 	stp	x29, x30, [sp, #-16]!
   4:	90000000 	adrp	x0, 0 <cleanup_module>
   8:	91000000 	add	x0, x0, #0x0
   c:	910003fd 	mov	x29, sp
  10:	94000000 	bl	0 <printk>
  14:	a8c17bfd 	ldp	x29, x30, [sp], #16
  18:	d65f03c0 	ret
